target datalayout = "e-m:e-p270:32:32-p271:32:32-p272:64:64-i64:64-i128:128-f80:128-n8:16:32:64-S128"
target triple = "x86_64-pc-linux-gnu"

%struct.opj_tcd = type { i32, i32, i32, i32, i32, ptr, ptr, ptr, ptr, i32, i8, ptr, i32, i32, i32, i32, i32, ptr }
%struct.opj_tcd_tilecomp = type { i32, i32, i32, i32, i32, i32, i32, ptr, i32, ptr, i32, i64, i64, ptr, i32, i32, i32, i32, i64 }
%struct.opj_tcd_resolution = type { i32, i32, i32, i32, i32, i32, i32, [3 x %struct.opj_tcd_band], i32, i32, i32, i32 }
%struct.opj_tcd_band = type { i32, i32, i32, i32, i32, ptr, i32, i32, float }
%struct.opj_tcd_precinct = type { i32, i32, i32, i32, i32, i32, %union.anon, i32, ptr, ptr }
%union.anon = type { ptr }
%struct.opj_tccp = type { i32, i32, i32, i32, i32, i32, i32, [97 x %struct.opj_stepsize], i32, i32, [33 x i32], [33 x i32], i32 }
%struct.opj_stepsize = type { i32, i32 }
%struct.opj_tcd_tile = type { i32, i32, i32, i32, i32, ptr, i64, double, [100 x double], i32 }
%struct.opj_tcp = type { i32, i32, i32, i32, i32, [100 x float], i32, [32 x %struct.opj_poc], i32, ptr, ptr, ptr, i32, i32, [100 x float], ptr, i32, i32, ptr, i32, ptr, ptr, ptr, ptr, i32, i32, ptr, i32, i32, i8 }
%struct.opj_poc = type { i32, i32, i32, i32, i32, i32, i32, i32, i32, i32, [5 x i8], i32, i32, i32, i32, i32, i32, i32, i32, i32, i32, i32, i32, i32, i32, i32, i32, i32, i32, i32, i32, i32, i32, i32, i32, i32 }
%struct.opj_tcd_cblk_enc = type { ptr, ptr, ptr, i32, i32, i32, i32, i32, i32, i32, i32, i32, i32 }
%struct.opj_t1_cblk_encode_processing_job_t = type { i32, i32, ptr, ptr, ptr, ptr, ptr, ptr, i32, ptr, ptr }

; Function Attrs: nounwind uwtable
define hidden i32 @opj_t1_encode_cblks(ptr noundef %0, ptr noundef %1, ptr noundef %2, ptr noundef %3, i32 noundef %4) #0 {
  %6 = alloca i32, align 4
  %7 = alloca ptr, align 8
  %8 = alloca ptr, align 8
  %9 = alloca ptr, align 8
  %10 = alloca ptr, align 8
  %11 = alloca i32, align 4
  %12 = alloca i32, align 4
  %13 = alloca ptr, align 8
  %14 = alloca i32, align 4
  %15 = alloca i32, align 4
  %16 = alloca i32, align 4
  %17 = alloca i32, align 4
  %18 = alloca i32, align 4
  %19 = alloca ptr, align 8
  %20 = alloca ptr, align 8
  %21 = alloca ptr, align 8
  %22 = alloca ptr, align 8
  %23 = alloca ptr, align 8
  %24 = alloca i32, align 4
  %25 = alloca ptr, align 8
  %26 = alloca ptr, align 8
  %27 = alloca ptr, align 8
  store ptr %0, ptr %7, align 8, !tbaa !20
  store ptr %1, ptr %8, align 8, !tbaa !129
  store ptr %2, ptr %9, align 8, !tbaa !131
  store ptr %3, ptr %10, align 8, !tbaa !132
  store i32 %4, ptr %11, align 4, !tbaa !3
  call void @llvm.lifetime.start.p0(i64 4, ptr %12) #10
  store volatile i32 1, ptr %12, align 4, !tbaa !3
  call void @llvm.lifetime.start.p0(i64 8, ptr %13) #10
  %28 = load ptr, ptr %7, align 8, !tbaa !20
  %29 = getelementptr inbounds nuw %struct.opj_tcd, ptr %28, i32 0, i32 11
  %30 = load ptr, ptr %29, align 8, !tbaa !31
  store ptr %30, ptr %13, align 8, !tbaa !38
  call void @llvm.lifetime.start.p0(i64 4, ptr %14) #10
  call void @llvm.lifetime.start.p0(i64 4, ptr %15) #10
  call void @llvm.lifetime.start.p0(i64 4, ptr %16) #10
  call void @llvm.lifetime.start.p0(i64 4, ptr %17) #10
  call void @llvm.lifetime.start.p0(i64 4, ptr %18) #10
  call void @llvm.lifetime.start.p0(i64 8, ptr %19) #10
  %31 = call ptr @opj_mutex_create()
  store ptr %31, ptr %19, align 8, !tbaa !29
  %32 = load ptr, ptr %8, align 8, !tbaa !129
  %33 = getelementptr inbounds nuw %struct.opj_tcd_tile, ptr %32, i32 0, i32 7
  store double 0.000000e+00, ptr %33, align 8, !tbaa !134
  store i32 0, ptr %14, align 4, !tbaa !3
  br label %34

34:                                               ; preds = %188, %5
  %35 = load i32, ptr %14, align 4, !tbaa !3
  %36 = load ptr, ptr %8, align 8, !tbaa !129
  %37 = getelementptr inbounds nuw %struct.opj_tcd_tile, ptr %36, i32 0, i32 4
  %38 = load i32, ptr %37, align 8, !tbaa !137
  %39 = icmp ult i32 %35, %38
  br i1 %39, label %40, label %191

40:                                               ; preds = %34
  call void @llvm.lifetime.start.p0(i64 8, ptr %20) #10
  %41 = load ptr, ptr %8, align 8, !tbaa !129
  %42 = getelementptr inbounds nuw %struct.opj_tcd_tile, ptr %41, i32 0, i32 5
  %43 = load ptr, ptr %42, align 8, !tbaa !138
  %44 = load i32, ptr %14, align 4, !tbaa !3
  %45 = zext i32 %44 to i64
  %46 = getelementptr inbounds nuw %struct.opj_tcd_tilecomp, ptr %43, i64 %45
  store ptr %46, ptr %20, align 8, !tbaa !23
  call void @llvm.lifetime.start.p0(i64 8, ptr %21) #10
  %47 = load ptr, ptr %9, align 8, !tbaa !131
  %48 = getelementptr inbounds nuw %struct.opj_tcp, ptr %47, i32 0, i32 15
  %49 = load ptr, ptr %48, align 8, !tbaa !139
  %50 = load i32, ptr %14, align 4, !tbaa !3
  %51 = zext i32 %50 to i64
  %52 = getelementptr inbounds nuw %struct.opj_tccp, ptr %49, i64 %51
  store ptr %52, ptr %21, align 8, !tbaa !25
  store i32 0, ptr %15, align 4, !tbaa !3
  br label %53

53:                                               ; preds = %181, %40
  %54 = load i32, ptr %15, align 4, !tbaa !3
  %55 = load ptr, ptr %20, align 8, !tbaa !23
  %56 = getelementptr inbounds nuw %struct.opj_tcd_tilecomp, ptr %55, i32 0, i32 5
  %57 = load i32, ptr %56, align 4, !tbaa !144
  %58 = icmp ult i32 %54, %57
  br i1 %58, label %59, label %184

59:                                               ; preds = %53
  call void @llvm.lifetime.start.p0(i64 8, ptr %22) #10
  %60 = load ptr, ptr %20, align 8, !tbaa !23
  %61 = getelementptr inbounds nuw %struct.opj_tcd_tilecomp, ptr %60, i32 0, i32 7
  %62 = load ptr, ptr %61, align 8, !tbaa !43
  %63 = load i32, ptr %15, align 4, !tbaa !3
  %64 = zext i32 %63 to i64
  %65 = getelementptr inbounds nuw %struct.opj_tcd_resolution, ptr %62, i64 %64
  store ptr %65, ptr %22, align 8, !tbaa !44
  store i32 0, ptr %16, align 4, !tbaa !3
  br label %66

66:                                               ; preds = %174, %59
  %67 = load i32, ptr %16, align 4, !tbaa !3
  %68 = load ptr, ptr %22, align 8, !tbaa !44
  %69 = getelementptr inbounds nuw %struct.opj_tcd_resolution, ptr %68, i32 0, i32 6
  %70 = load i32, ptr %69, align 8, !tbaa !45
  %71 = icmp ult i32 %67, %70
  br i1 %71, label %72, label %177

72:                                               ; preds = %66
  call void @llvm.lifetime.start.p0(i64 8, ptr %23) #10
  %73 = load ptr, ptr %22, align 8, !tbaa !44
  %74 = getelementptr inbounds nuw %struct.opj_tcd_resolution, ptr %73, i32 0, i32 7
  %75 = load i32, ptr %16, align 4, !tbaa !3
  %76 = zext i32 %75 to i64
  %77 = getelementptr inbounds nuw [3 x %struct.opj_tcd_band], ptr %74, i64 0, i64 %76
  store ptr %77, ptr %23, align 8, !tbaa !47
  %78 = load ptr, ptr %23, align 8, !tbaa !47
  %79 = call i32 @opj_tcd_is_band_empty(ptr noundef %78)
  %80 = icmp ne i32 %79, 0
  br i1 %80, label %81, label %82

81:                                               ; preds = %72
  store i32 10, ptr %24, align 4
  br label %171

82:                                               ; preds = %72
  store i32 0, ptr %17, align 4, !tbaa !3
  br label %83

83:                                               ; preds = %167, %82
  %84 = load i32, ptr %17, align 4, !tbaa !3
  %85 = load ptr, ptr %22, align 8, !tbaa !44
  %86 = getelementptr inbounds nuw %struct.opj_tcd_resolution, ptr %85, i32 0, i32 4
  %87 = load i32, ptr %86, align 8, !tbaa !49
  %88 = load ptr, ptr %22, align 8, !tbaa !44
  %89 = getelementptr inbounds nuw %struct.opj_tcd_resolution, ptr %88, i32 0, i32 5
  %90 = load i32, ptr %89, align 4, !tbaa !50
  %91 = mul i32 %87, %90
  %92 = icmp ult i32 %84, %91
  br i1 %92, label %93, label %170

93:                                               ; preds = %83
  call void @llvm.lifetime.start.p0(i64 8, ptr %25) #10
  %94 = load ptr, ptr %23, align 8, !tbaa !47
  %95 = getelementptr inbounds nuw %struct.opj_tcd_band, ptr %94, i32 0, i32 5
  %96 = load ptr, ptr %95, align 8, !tbaa !51
  %97 = load i32, ptr %17, align 4, !tbaa !3
  %98 = zext i32 %97 to i64
  %99 = getelementptr inbounds nuw %struct.opj_tcd_precinct, ptr %96, i64 %98
  store ptr %99, ptr %25, align 8, !tbaa !55
  store i32 0, ptr %18, align 4, !tbaa !3
  br label %100

100:                                              ; preds = %160, %93
  %101 = load i32, ptr %18, align 4, !tbaa !3
  %102 = load ptr, ptr %25, align 8, !tbaa !55
  %103 = getelementptr inbounds nuw %struct.opj_tcd_precinct, ptr %102, i32 0, i32 4
  %104 = load i32, ptr %103, align 8, !tbaa !64
  %105 = load ptr, ptr %25, align 8, !tbaa !55
  %106 = getelementptr inbounds nuw %struct.opj_tcd_precinct, ptr %105, i32 0, i32 5
  %107 = load i32, ptr %106, align 4, !tbaa !65
  %108 = mul i32 %104, %107
  %109 = icmp ult i32 %101, %108
  br i1 %109, label %110, label %163

110:                                              ; preds = %100
  call void @llvm.lifetime.start.p0(i64 8, ptr %26) #10
  %111 = load ptr, ptr %25, align 8, !tbaa !55
  %112 = getelementptr inbounds nuw %struct.opj_tcd_precinct, ptr %111, i32 0, i32 6
  %113 = load ptr, ptr %112, align 8, !tbaa !66
  %114 = load i32, ptr %18, align 4, !tbaa !3
  %115 = zext i32 %114 to i64
  %116 = getelementptr inbounds nuw %struct.opj_tcd_cblk_enc, ptr %113, i64 %115
  store ptr %116, ptr %26, align 8, !tbaa !145
  call void @llvm.lifetime.start.p0(i64 8, ptr %27) #10
  %117 = call ptr @opj_calloc(i64 noundef 1, i64 noundef 80)
  store ptr %117, ptr %27, align 8, !tbaa !80
  %118 = load ptr, ptr %27, align 8, !tbaa !80
  %119 = icmp ne ptr %118, null
  br i1 %119, label %121, label %120

120:                                              ; preds = %110
  store volatile i32 0, ptr %12, align 4, !tbaa !3
  store i32 17, ptr %24, align 4
  br label %157

121:                                              ; preds = %110
  %122 = load i32, ptr %14, align 4, !tbaa !3
  %123 = load ptr, ptr %27, align 8, !tbaa !80
  %124 = getelementptr inbounds nuw %struct.opj_t1_cblk_encode_processing_job_t, ptr %123, i32 0, i32 0
  store i32 %122, ptr %124, align 8, !tbaa !147
  %125 = load ptr, ptr %8, align 8, !tbaa !129
  %126 = load ptr, ptr %27, align 8, !tbaa !80
  %127 = getelementptr inbounds nuw %struct.opj_t1_cblk_encode_processing_job_t, ptr %126, i32 0, i32 3
  store ptr %125, ptr %127, align 8, !tbaa !149
  %128 = load i32, ptr %15, align 4, !tbaa !3
  %129 = load ptr, ptr %27, align 8, !tbaa !80
  %130 = getelementptr inbounds nuw %struct.opj_t1_cblk_encode_processing_job_t, ptr %129, i32 0, i32 1
  store i32 %128, ptr %130, align 4, !tbaa !150
  %131 = load ptr, ptr %26, align 8, !tbaa !145
  %132 = load ptr, ptr %27, align 8, !tbaa !80
  %133 = getelementptr inbounds nuw %struct.opj_t1_cblk_encode_processing_job_t, ptr %132, i32 0, i32 2
  store ptr %131, ptr %133, align 8, !tbaa !151
  %134 = load ptr, ptr %23, align 8, !tbaa !47
  %135 = load ptr, ptr %27, align 8, !tbaa !80
  %136 = getelementptr inbounds nuw %struct.opj_t1_cblk_encode_processing_job_t, ptr %135, i32 0, i32 4
  store ptr %134, ptr %136, align 8, !tbaa !152
  %137 = load ptr, ptr %20, align 8, !tbaa !23
  %138 = load ptr, ptr %27, align 8, !tbaa !80
  %139 = getelementptr inbounds nuw %struct.opj_t1_cblk_encode_processing_job_t, ptr %138, i32 0, i32 5
  store ptr %137, ptr %139, align 8, !tbaa !153
  %140 = load ptr, ptr %21, align 8, !tbaa !25
  %141 = load ptr, ptr %27, align 8, !tbaa !80
  %142 = getelementptr inbounds nuw %struct.opj_t1_cblk_encode_processing_job_t, ptr %141, i32 0, i32 6
  store ptr %140, ptr %142, align 8, !tbaa !154
  %143 = load ptr, ptr %10, align 8, !tbaa !132
  %144 = load ptr, ptr %27, align 8, !tbaa !80
  %145 = getelementptr inbounds nuw %struct.opj_t1_cblk_encode_processing_job_t, ptr %144, i32 0, i32 7
  store ptr %143, ptr %145, align 8, !tbaa !155
  %146 = load i32, ptr %11, align 4, !tbaa !3
  %147 = load ptr, ptr %27, align 8, !tbaa !80
  %148 = getelementptr inbounds nuw %struct.opj_t1_cblk_encode_processing_job_t, ptr %147, i32 0, i32 8
  store i32 %146, ptr %148, align 8, !tbaa !156
  %149 = load ptr, ptr %27, align 8, !tbaa !80
  %150 = getelementptr inbounds nuw %struct.opj_t1_cblk_encode_processing_job_t, ptr %149, i32 0, i32 9
  store ptr %12, ptr %150, align 8, !tbaa !157
  %151 = load ptr, ptr %19, align 8, !tbaa !29
  %152 = load ptr, ptr %27, align 8, !tbaa !80
  %153 = getelementptr inbounds nuw %struct.opj_t1_cblk_encode_processing_job_t, ptr %152, i32 0, i32 10
  store ptr %151, ptr %153, align 8, !tbaa !158
  %154 = load ptr, ptr %13, align 8, !tbaa !38
  %155 = load ptr, ptr %27, align 8, !tbaa !80
  %156 = call i32 @opj_thread_pool_submit_job(ptr noundef %154, ptr noundef @opj_t1_cblk_encode_processor, ptr noundef %155)
  store i32 0, ptr %24, align 4
  br label %157

157:                                              ; preds = %120, %121
  call void @llvm.lifetime.end.p0(i64 8, ptr %27) #10
  call void @llvm.lifetime.end.p0(i64 8, ptr %26) #10
  %158 = load i32, ptr %24, align 4
  switch i32 %158, label %164 [
    i32 0, label %159
  ]

159:                                              ; preds = %157
  br label %160

160:                                              ; preds = %159
  %161 = load i32, ptr %18, align 4, !tbaa !3
  %162 = add i32 %161, 1
  store i32 %162, ptr %18, align 4, !tbaa !3
  br label %100, !llvm.loop !159

163:                                              ; preds = %100
  store i32 0, ptr %24, align 4
  br label %164

164:                                              ; preds = %163, %157
  call void @llvm.lifetime.end.p0(i64 8, ptr %25) #10
  %165 = load i32, ptr %24, align 4
  switch i32 %165, label %171 [
    i32 0, label %166
  ]

166:                                              ; preds = %164
  br label %167

167:                                              ; preds = %166
  %168 = load i32, ptr %17, align 4, !tbaa !3
  %169 = add i32 %168, 1
  store i32 %169, ptr %17, align 4, !tbaa !3
  br label %83, !llvm.loop !160

170:                                              ; preds = %83
  store i32 0, ptr %24, align 4
  br label %171

171:                                              ; preds = %170, %164, %81
  call void @llvm.lifetime.end.p0(i64 8, ptr %23) #10
  %172 = load i32, ptr %24, align 4
  switch i32 %172, label %178 [
    i32 0, label %173
    i32 10, label %174
  ]

173:                                              ; preds = %171
  br label %174

174:                                              ; preds = %173, %171
  %175 = load i32, ptr %16, align 4, !tbaa !3
  %176 = add i32 %175, 1
  store i32 %176, ptr %16, align 4, !tbaa !3
  br label %66, !llvm.loop !161

177:                                              ; preds = %66
  store i32 0, ptr %24, align 4
  br label %178

178:                                              ; preds = %177, %171
  call void @llvm.lifetime.end.p0(i64 8, ptr %22) #10
  %179 = load i32, ptr %24, align 4
  switch i32 %179, label %185 [
    i32 0, label %180
  ]

180:                                              ; preds = %178
  br label %181

181:                                              ; preds = %180
  %182 = load i32, ptr %15, align 4, !tbaa !3
  %183 = add i32 %182, 1
  store i32 %183, ptr %15, align 4, !tbaa !3
  br label %53, !llvm.loop !162

184:                                              ; preds = %53
  store i32 0, ptr %24, align 4
  br label %185

185:                                              ; preds = %184, %178
  call void @llvm.lifetime.end.p0(i64 8, ptr %21) #10
  call void @llvm.lifetime.end.p0(i64 8, ptr %20) #10
  %186 = load i32, ptr %24, align 4
  switch i32 %186, label %202 [
    i32 0, label %187
    i32 17, label %192
  ]

187:                                              ; preds = %185
  br label %188

188:                                              ; preds = %187
  %189 = load i32, ptr %14, align 4, !tbaa !3
  %190 = add i32 %189, 1
  store i32 %190, ptr %14, align 4, !tbaa !3
  br label %34, !llvm.loop !163

191:                                              ; preds = %34
  br label %192

192:                                              ; preds = %191, %185
  %193 = load ptr, ptr %7, align 8, !tbaa !20
  %194 = getelementptr inbounds nuw %struct.opj_tcd, ptr %193, i32 0, i32 11
  %195 = load ptr, ptr %194, align 8, !tbaa !31
  call void @opj_thread_pool_wait_completion(ptr noundef %195, i32 noundef 0)
  %196 = load ptr, ptr %19, align 8, !tbaa !29
  %197 = icmp ne ptr %196, null
  br i1 %197, label %198, label %200

198:                                              ; preds = %192
  %199 = load ptr, ptr %19, align 8, !tbaa !29
  call void @opj_mutex_destroy(ptr noundef %199)
  br label %200

200:                                              ; preds = %198, %192
  %201 = load volatile i32, ptr %12, align 4, !tbaa !3
  store i32 %201, ptr %6, align 4
  store i32 1, ptr %24, align 4
  br label %202

202:                                              ; preds = %200, %185
  call void @llvm.lifetime.end.p0(i64 8, ptr %19) #10
  call void @llvm.lifetime.end.p0(i64 4, ptr %18) #10
  call void @llvm.lifetime.end.p0(i64 4, ptr %17) #10
  call void @llvm.lifetime.end.p0(i64 4, ptr %16) #10
  call void @llvm.lifetime.end.p0(i64 4, ptr %15) #10
  call void @llvm.lifetime.end.p0(i64 4, ptr %14) #10
  call void @llvm.lifetime.end.p0(i64 8, ptr %13) #10
  call void @llvm.lifetime.end.p0(i64 4, ptr %12) #10
  %203 = load i32, ptr %6, align 4
  ret i32 %203
}