; Function Attrs: nounwind uwtable
define hidden i32 @opj_t1_encode_cblks(ptr noundef readonly captures(none) %0, ptr noundef initializes((40, 48)) %1, ptr noundef readonly captures(none) %2, ptr noundef %3, i32 noundef %4) local_unnamed_addr #0 {
  %6 = alloca i32, align 4
  call void @llvm.lifetime.start.p0(i64 4, ptr nonnull %6) #12
  store volatile i32 1, ptr %6, align 4, !tbaa !59
  %7 = getelementptr inbounds nuw i8, ptr %0, i64 64
  %8 = load ptr, ptr %7, align 8, !tbaa !17
  %9 = tail call ptr @opj_mutex_create() #12
  %10 = getelementptr inbounds nuw i8, ptr %1, i64 40
  store double 0.000000e+00, ptr %10, align 8, !tbaa !173
  %11 = getelementptr inbounds nuw i8, ptr %1, i64 16
  %12 = load i32, ptr %11, align 8, !tbaa !176
  %.not102 = icmp eq i32 %12, 0
  br i1 %.not102, label %.loopexit87, label %.lr.ph101

.lr.ph101:                                        ; preds = %5
  %13 = getelementptr inbounds nuw i8, ptr %1, i64 24
  %14 = getelementptr inbounds nuw i8, ptr %2, i64 5600
  br label %15

15:                                               ; preds = %.lr.ph101, %._crit_edge98
  %16 = phi i32 [ %12, %.lr.ph101 ], [ %86, %._crit_edge98 ]
  %indvars.iv117 = phi i64 [ 0, %.lr.ph101 ], [ %indvars.iv.next118, %._crit_edge98 ]
  %17 = load ptr, ptr %13, align 8, !tbaa !177
  %18 = getelementptr inbounds nuw %struct.opj_tcd_tilecomp, ptr %17, i64 %indvars.iv117
  %19 = load ptr, ptr %14, align 8, !tbaa !178
  %20 = getelementptr inbounds nuw %struct.opj_tccp, ptr %19, i64 %indvars.iv117
  %21 = getelementptr inbounds nuw i8, ptr %18, i64 20
  %22 = load i32, ptr %21, align 4, !tbaa !185
  %.not103 = icmp eq i32 %22, 0
  br i1 %.not103, label %._crit_edge98, label %.lr.ph97

.lr.ph97:                                         ; preds = %15
  %23 = getelementptr inbounds nuw i8, ptr %18, i64 32
  %24 = trunc nuw i64 %indvars.iv117 to i32
  br label %25

25:                                               ; preds = %.lr.ph97, %._crit_edge94
  %26 = phi i32 [ %22, %.lr.ph97 ], [ %82, %._crit_edge94 ]
  %indvars.iv114 = phi i64 [ 0, %.lr.ph97 ], [ %indvars.iv.next115, %._crit_edge94 ]
  %27 = load ptr, ptr %23, align 8, !tbaa !28
  %28 = getelementptr inbounds nuw %struct.opj_tcd_resolution, ptr %27, i64 %indvars.iv114
  %29 = getelementptr inbounds nuw i8, ptr %28, i64 24
  %30 = load i32, ptr %29, align 8, !tbaa !29
  %.not104 = icmp eq i32 %30, 0
  br i1 %.not104, label %._crit_edge94, label %.lr.ph93

.lr.ph93:                                         ; preds = %25
  %31 = getelementptr inbounds nuw i8, ptr %28, i64 32
  %32 = getelementptr inbounds nuw i8, ptr %28, i64 16
  %33 = getelementptr inbounds nuw i8, ptr %28, i64 20
  %34 = trunc nuw i64 %indvars.iv114 to i32
  br label %35

35:                                               ; preds = %.lr.ph93, %.loopexit
  %indvars.iv111 = phi i64 [ 0, %.lr.ph93 ], [ %indvars.iv.next112, %.loopexit ]
  %36 = getelementptr inbounds nuw [3 x %struct.opj_tcd_band], ptr %31, i64 0, i64 %indvars.iv111
  %37 = call i32 @opj_tcd_is_band_empty(ptr noundef nonnull %36) #12
  %.not = icmp eq i32 %37, 0
  br i1 %.not, label %.preheader, label %.loopexit

.preheader:                                       ; preds = %35
  %38 = load i32, ptr %32, align 8, !tbaa !31
  %39 = load i32, ptr %33, align 4, !tbaa !32
  %40 = mul i32 %39, %38
  %.not105 = icmp eq i32 %40, 0
  br i1 %.not105, label %.loopexit, label %.lr.ph90

.lr.ph90:                                         ; preds = %.preheader
  %41 = getelementptr inbounds nuw i8, ptr %36, i64 24
  br label %42

42:                                               ; preds = %.lr.ph90, %._crit_edge
  %43 = phi i32 [ %39, %.lr.ph90 ], [ %74, %._crit_edge ]
  %44 = phi i32 [ %38, %.lr.ph90 ], [ %75, %._crit_edge ]
  %indvars.iv108 = phi i64 [ 0, %.lr.ph90 ], [ %indvars.iv.next109, %._crit_edge ]
  %45 = load ptr, ptr %41, align 8, !tbaa !33
  %46 = getelementptr inbounds nuw %struct.opj_tcd_precinct, ptr %45, i64 %indvars.iv108
  %47 = getelementptr inbounds nuw i8, ptr %46, i64 16
  %48 = getelementptr inbounds nuw i8, ptr %46, i64 20
  %49 = load i32, ptr %47, align 8, !tbaa !45
  %50 = load i32, ptr %48, align 4, !tbaa !46
  %51 = mul i32 %50, %49
  %.not106 = icmp eq i32 %51, 0
  br i1 %.not106, label %._crit_edge, label %.lr.ph

.lr.ph:                                           ; preds = %42
  %52 = getelementptr inbounds nuw i8, ptr %46, i64 24
  br label %53

53:                                               ; preds = %.lr.ph, %56
  %indvars.iv = phi i64 [ 0, %.lr.ph ], [ %indvars.iv.next, %56 ]
  %54 = load ptr, ptr %52, align 8, !tbaa !47
  %55 = call ptr @opj_calloc(i64 noundef 1, i64 noundef 80) #12
  %.not74.not = icmp eq ptr %55, null
  br i1 %.not74.not, label %85, label %56

56:                                               ; preds = %53
  %57 = getelementptr inbounds nuw %struct.opj_tcd_cblk_enc, ptr %54, i64 %indvars.iv
  store i32 %24, ptr %55, align 8, !tbaa !186
  %58 = getelementptr inbounds nuw i8, ptr %55, i64 16
  store ptr %1, ptr %58, align 8, !tbaa !190
  %59 = getelementptr inbounds nuw i8, ptr %55, i64 4
  store i32 %34, ptr %59, align 4, !tbaa !191
  %60 = getelementptr inbounds nuw i8, ptr %55, i64 8
  store ptr %57, ptr %60, align 8, !tbaa !192
  %61 = getelementptr inbounds nuw i8, ptr %55, i64 24
  store ptr %36, ptr %61, align 8, !tbaa !193
  %62 = getelementptr inbounds nuw i8, ptr %55, i64 32
  store ptr %18, ptr %62, align 8, !tbaa !194
  %63 = getelementptr inbounds nuw i8, ptr %55, i64 40
  store ptr %20, ptr %63, align 8, !tbaa !195
  %64 = getelementptr inbounds nuw i8, ptr %55, i64 48
  store ptr %3, ptr %64, align 8, !tbaa !196
  %65 = getelementptr inbounds nuw i8, ptr %55, i64 56
  store i32 %4, ptr %65, align 8, !tbaa !197
  %66 = getelementptr inbounds nuw i8, ptr %55, i64 64
  store ptr %6, ptr %66, align 8, !tbaa !198
  %67 = getelementptr inbounds nuw i8, ptr %55, i64 72
  store ptr %9, ptr %67, align 8, !tbaa !199
  %68 = call i32 @opj_thread_pool_submit_job(ptr noundef %8, ptr noundef nonnull @opj_t1_cblk_encode_processor, ptr noundef nonnull %55) #12
  %indvars.iv.next = add nuw nsw i64 %indvars.iv, 1
  %69 = load i32, ptr %47, align 8, !tbaa !45
  %70 = load i32, ptr %48, align 4, !tbaa !46
  %71 = mul i32 %70, %69
  %72 = zext i32 %71 to i64
  %73 = icmp samesign ult i64 %indvars.iv.next, %72
  br i1 %73, label %53, label %._crit_edge.loopexit, !llvm.loop !200

._crit_edge.loopexit:                             ; preds = %56
  %.pre = load i32, ptr %32, align 8, !tbaa !31
  %.pre120 = load i32, ptr %33, align 4, !tbaa !32
  br label %._crit_edge

._crit_edge:                                      ; preds = %._crit_edge.loopexit, %42
  %74 = phi i32 [ %.pre120, %._crit_edge.loopexit ], [ %43, %42 ]
  %75 = phi i32 [ %.pre, %._crit_edge.loopexit ], [ %44, %42 ]
  %indvars.iv.next109 = add nuw nsw i64 %indvars.iv108, 1
  %76 = mul i32 %74, %75
  %77 = zext i32 %76 to i64
  %78 = icmp samesign ult i64 %indvars.iv.next109, %77
  br i1 %78, label %42, label %.loopexit, !llvm.loop !201

.loopexit:                                        ; preds = %._crit_edge, %.preheader, %35
  %indvars.iv.next112 = add nuw nsw i64 %indvars.iv111, 1
  %79 = load i32, ptr %29, align 8, !tbaa !29
  %80 = zext i32 %79 to i64
  %81 = icmp samesign ult i64 %indvars.iv.next112, %80
  br i1 %81, label %35, label %._crit_edge94.loopexit, !llvm.loop !202

._crit_edge94.loopexit:                           ; preds = %.loopexit
  %.pre121 = load i32, ptr %21, align 4, !tbaa !185
  br label %._crit_edge94

._crit_edge94:                                    ; preds = %._crit_edge94.loopexit, %25
  %82 = phi i32 [ %.pre121, %._crit_edge94.loopexit ], [ %26, %25 ]
  %indvars.iv.next115 = add nuw nsw i64 %indvars.iv114, 1
  %83 = zext i32 %82 to i64
  %84 = icmp samesign ult i64 %indvars.iv.next115, %83
  br i1 %84, label %25, label %._crit_edge98.loopexit, !llvm.loop !203

85:                                               ; preds = %53
  store volatile i32 0, ptr %6, align 4, !tbaa !59
  br label %.loopexit87

._crit_edge98.loopexit:                           ; preds = %._crit_edge94
  %.pre122 = load i32, ptr %11, align 8, !tbaa !176
  br label %._crit_edge98

._crit_edge98:                                    ; preds = %._crit_edge98.loopexit, %15
  %86 = phi i32 [ %.pre122, %._crit_edge98.loopexit ], [ %16, %15 ]
  %indvars.iv.next118 = add nuw nsw i64 %indvars.iv117, 1
  %87 = zext i32 %86 to i64
  %88 = icmp samesign ult i64 %indvars.iv.next118, %87
  br i1 %88, label %15, label %.loopexit87, !llvm.loop !204

.loopexit87:                                      ; preds = %._crit_edge98, %5, %85
  %89 = load ptr, ptr %7, align 8, !tbaa !17
  call void @opj_thread_pool_wait_completion(ptr noundef %89, i32 noundef 0) #12
  %.not75 = icmp eq ptr %9, null
  br i1 %.not75, label %91, label %90

90:                                               ; preds = %.loopexit87
  call void @opj_mutex_destroy(ptr noundef nonnull %9) #12
  br label %91

91:                                               ; preds = %.loopexit87, %90
  %92 = load volatile i32, ptr %6, align 4, !tbaa !59
  call void @llvm.lifetime.end.p0(i64 4, ptr nonnull %6) #12
  ret i32 %92
}